; Function Attrs: null_pointer_is_valid sspstrong uwtable
define internal fastcc void @s7comm_decode_pdu_setup_communication(ptr noundef %0, ptr noundef %1, i32 noundef range(i32 11, 14) %2) unnamed_addr #0 {
  %4 = load i32, ptr @hf_s7comm_param_setup_reserved1, align 4
  %5 = tail call ptr @proto_tree_add_item(ptr noundef %1, i32 noundef %4, ptr noundef %0, i32 noundef %2, i32 noundef 1, i32 noundef 0)
  %6 = add nuw nsw i32 %2, 1
  %7 = load i32, ptr @hf_s7comm_param_maxamq_calling, align 4
  %8 = tail call ptr @proto_tree_add_item(ptr noundef %1, i32 noundef %7, ptr noundef %0, i32 noundef %6, i32 noundef 2, i32 noundef 0)
  %9 = add nuw nsw i32 %2, 3
  %10 = load i32, ptr @hf_s7comm_param_maxamq_called, align 4
  %11 = tail call ptr @proto_tree_add_item(ptr noundef %1, i32 noundef %10, ptr noundef %0, i32 noundef %9, i32 noundef 2, i32 noundef 0)
  %12 = add nuw nsw i32 %2, 5
  %13 = load i32, ptr @hf_s7comm_param_neg_pdu_length, align 4
  %14 = tail call ptr @proto_tree_add_item(ptr noundef %1, i32 noundef %13, ptr noundef %0, i32 noundef %12, i32 noundef 2, i32 noundef 0)
  ret void
}